target datalayout = "e-m:e-p270:32:32-p271:32:32-p272:64:64-i64:64-i128:128-f80:128-n8:16:32:64-S128"
target triple = "x86_64-pc-linux-gnu"

%struct.HeapTupleData = type { i32, %struct.ItemPointerData, i32, ptr }
%struct.ItemPointerData = type { %struct.BlockIdData, i16 }
%struct.BlockIdData = type { i16, i16 }
%struct.HeapTupleHeaderData = type { %union.anon, %struct.ItemPointerData, i16, i16, i8, [0 x i8] }
%union.anon = type { %struct.HeapTupleFields }
%struct.HeapTupleFields = type { i32, i32, %union.anon.0 }
%union.anon.0 = type { i32 }
%struct.ForeignServer = type { i32, i32, i32, ptr, ptr, ptr, ptr }
%struct.FormData_pg_user_mapping = type { i32, i32, i32 }
%struct.UserMapping = type { i32, i32, i32, ptr }

@.str.1 = private unnamed_addr constant [10 x i8] c"foreign.c\00", align 1
@.str.3 = private unnamed_addr constant [50 x i8] c"user mapping not found for user \22%s\22, server \22%s\22\00", align 1
@.str.4 = private unnamed_addr constant [7 x i8] c"public\00", align 1
@__func__.GetUserMapping = private unnamed_addr constant [15 x i8] c"GetUserMapping\00", align 1

; Function Attrs: inlinehint nounwind uwtable
define internal ptr @GETSTRUCT(ptr noundef %0) #3 {
  %2 = alloca ptr, align 8
  store ptr %0, ptr %2, align 8
  %3 = load ptr, ptr %2, align 8
  %4 = getelementptr inbounds nuw %struct.HeapTupleData, ptr %3, i32 0, i32 3
  %5 = load ptr, ptr %4, align 8
  %6 = load ptr, ptr %2, align 8
  %7 = getelementptr inbounds nuw %struct.HeapTupleData, ptr %6, i32 0, i32 3
  %8 = load ptr, ptr %7, align 8
  %9 = getelementptr inbounds nuw %struct.HeapTupleHeaderData, ptr %8, i32 0, i32 4
  %10 = load i8, ptr %9, align 2
  %11 = zext i8 %10 to i32
  %12 = sext i32 %11 to i64
  %13 = getelementptr inbounds i8, ptr %5, i64 %12
  ret ptr %13
}

; Function Attrs: nounwind uwtable
define dso_local ptr @GetForeignServer(i32 noundef %0) #0 {
  %2 = alloca i32, align 4
  store i32 %0, ptr %2, align 4
  %3 = load i32, ptr %2, align 4
  %4 = call ptr @GetForeignServerExtended(i32 noundef %3, i16 noundef zeroext 0)
  ret ptr %4
}

; Function Attrs: inlinehint nounwind uwtable
define internal i64 @ObjectIdGetDatum(i32 noundef %0) #3 {
  %2 = alloca i32, align 4
  store i32 %0, ptr %2, align 4
  %3 = load i32, ptr %2, align 4
  %4 = zext i32 %3 to i64
  ret i64 %4
}

; Function Attrs: nounwind uwtable
define dso_local ptr @GetUserMapping(i32 noundef %0, i32 noundef %1) #0 {
  %3 = alloca i32, align 4
  %4 = alloca i32, align 4
  %5 = alloca i64, align 8
  %6 = alloca ptr, align 8
  %7 = alloca i8, align 1
  %8 = alloca ptr, align 8
  %9 = alloca ptr, align 8
  store i32 %0, ptr %3, align 4
  store i32 %1, ptr %4, align 4
  call void @llvm.lifetime.start.p0(i64 8, ptr %5) #9
  call void @llvm.lifetime.start.p0(i64 8, ptr %6) #9
  call void @llvm.lifetime.start.p0(i64 1, ptr %7) #9
  call void @llvm.lifetime.start.p0(i64 8, ptr %8) #9
  %10 = load i32, ptr %3, align 4
  %11 = call i64 @ObjectIdGetDatum(i32 noundef %10)
  %12 = load i32, ptr %4, align 4
  %13 = call i64 @ObjectIdGetDatum(i32 noundef %12)
  %14 = call ptr @SearchSysCache2(i32 noundef 84, i64 noundef %11, i64 noundef %13)
  store ptr %14, ptr %6, align 8
  %15 = load ptr, ptr %6, align 8
  %16 = icmp ne ptr %15, null
  br i1 %16, label %22, label %17

17:                                               ; preds = %2
  %18 = call i64 @ObjectIdGetDatum(i32 noundef 0)
  %19 = load i32, ptr %4, align 4
  %20 = call i64 @ObjectIdGetDatum(i32 noundef %19)
  %21 = call ptr @SearchSysCache2(i32 noundef 84, i64 noundef %18, i64 noundef %20)
  store ptr %21, ptr %6, align 8
  br label %22

22:                                               ; preds = %17, %2
  %23 = load ptr, ptr %6, align 8
  %24 = icmp ne ptr %23, null
  br i1 %24, label %50, label %25

25:                                               ; preds = %22
  call void @llvm.lifetime.start.p0(i64 8, ptr %9) #9
  %26 = load i32, ptr %4, align 4
  %27 = call ptr @GetForeignServer(i32 noundef %26)
  store ptr %27, ptr %9, align 8
  br label %28

28:                                               ; preds = %25
  br i1 true, label %29, label %31

29:                                               ; preds = %28
  %30 = call zeroext i1 @errstart_cold(i32 noundef 21, ptr noundef null) #10
  br i1 %30, label %33, label %47

31:                                               ; preds = %28
  %32 = call zeroext i1 @errstart(i32 noundef 21, ptr noundef null)
  br i1 %32, label %33, label %47

33:                                               ; preds = %31, %29
  %34 = call i32 @errcode(i32 noundef 67137668)
  %35 = load i32, ptr %3, align 4
  %36 = icmp ne i32 %35, 0
  br i1 %36, label %37, label %40

37:                                               ; preds = %33
  %38 = load i32, ptr %3, align 4
  %39 = call ptr @GetUserNameFromId(i32 noundef %38, i1 noundef zeroext false)
  br label %41

40:                                               ; preds = %33
  br label %41

41:                                               ; preds = %40, %37
  %42 = phi ptr [ %39, %37 ], [ @.str.4, %40 ]
  %43 = load ptr, ptr %9, align 8
  %44 = getelementptr inbounds nuw %struct.ForeignServer, ptr %43, i32 0, i32 3
  %45 = load ptr, ptr %44, align 8
  %46 = call i32 (ptr, ...) @errmsg(ptr noundef @.str.3, ptr noundef %42, ptr noundef %45)
  call void @errfinish(ptr noundef @.str.1, i32 noundef 226, ptr noundef @__func__.GetUserMapping)
  br label %47

47:                                               ; preds = %41, %31, %29
  unreachable

48:                                               ; No predecessors!
  br label %49

49:                                               ; preds = %48
  call void @llvm.lifetime.end.p0(i64 8, ptr %9) #9
  br label %50

50:                                               ; preds = %49, %22
  %51 = call ptr @palloc(i64 noundef 24)
  store ptr %51, ptr %8, align 8
  %52 = load ptr, ptr %6, align 8
  %53 = call ptr @GETSTRUCT(ptr noundef %52)
  %54 = getelementptr inbounds nuw %struct.FormData_pg_user_mapping, ptr %53, i32 0, i32 0
  %55 = load i32, ptr %54, align 4
  %56 = load ptr, ptr %8, align 8
  %57 = getelementptr inbounds nuw %struct.UserMapping, ptr %56, i32 0, i32 0
  store i32 %55, ptr %57, align 8
  %58 = load i32, ptr %3, align 4
  %59 = load ptr, ptr %8, align 8
  %60 = getelementptr inbounds nuw %struct.UserMapping, ptr %59, i32 0, i32 1
  store i32 %58, ptr %60, align 4
  %61 = load i32, ptr %4, align 4
  %62 = load ptr, ptr %8, align 8
  %63 = getelementptr inbounds nuw %struct.UserMapping, ptr %62, i32 0, i32 2
  store i32 %61, ptr %63, align 8
  %64 = load ptr, ptr %6, align 8
  %65 = call i64 @SysCacheGetAttr(i32 noundef 84, ptr noundef %64, i16 noundef signext 4, ptr noundef %7)
  store i64 %65, ptr %5, align 8
  %66 = load i8, ptr %7, align 1, !range !4, !noundef !5
  %67 = trunc i8 %66 to i1
  br i1 %67, label %68, label %71

68:                                               ; preds = %50
  %69 = load ptr, ptr %8, align 8
  %70 = getelementptr inbounds nuw %struct.UserMapping, ptr %69, i32 0, i32 3
  store ptr null, ptr %70, align 8
  br label %76

71:                                               ; preds = %50
  %72 = load i64, ptr %5, align 8
  %73 = call ptr @untransformRelOptions(i64 noundef %72)
  %74 = load ptr, ptr %8, align 8
  %75 = getelementptr inbounds nuw %struct.UserMapping, ptr %74, i32 0, i32 3
  store ptr %73, ptr %75, align 8
  br label %76

76:                                               ; preds = %71, %68
  %77 = load ptr, ptr %6, align 8
  call void @ReleaseSysCache(ptr noundef %77)
  %78 = load ptr, ptr %8, align 8
  call void @llvm.lifetime.end.p0(i64 8, ptr %8) #9
  call void @llvm.lifetime.end.p0(i64 1, ptr %7) #9
  call void @llvm.lifetime.end.p0(i64 8, ptr %6) #9
  call void @llvm.lifetime.end.p0(i64 8, ptr %5) #9
  ret ptr %78
}