; Function Attrs: nounwind uwtable
define dso_local noundef ptr @GetUserMapping(i32 noundef %0, i32 noundef %1) local_unnamed_addr #0 {
  %3 = alloca i8, align 1
  call void @llvm.lifetime.start.p0(i64 1, ptr nonnull %3) #8
  %4 = zext i32 %0 to i64
  %5 = zext i32 %1 to i64
  %6 = tail call ptr @SearchSysCache2(i32 noundef 84, i64 noundef %4, i64 noundef %5) #8
  %.not = icmp eq ptr %6, null
  br i1 %.not, label %7, label %.thread

7:                                                ; preds = %2
  %8 = tail call ptr @SearchSysCache2(i32 noundef 84, i64 noundef 0, i64 noundef %5) #8
  %.not22 = icmp eq ptr %8, null
  br i1 %.not22, label %9, label %.thread

9:                                                ; preds = %7
  %10 = tail call noundef ptr @GetForeignServerExtended(i32 noundef %1, i16 noundef zeroext 0)
  %11 = tail call zeroext i1 @errstart_cold(i32 noundef 21, ptr noundef null) #9
  tail call void @llvm.assume(i1 %11)
  %12 = tail call i32 @errcode(i32 noundef 67137668) #8
  %.not23 = icmp eq i32 %0, 0
  br i1 %.not23, label %15, label %13

13:                                               ; preds = %9
  %14 = tail call ptr @GetUserNameFromId(i32 noundef %0, i1 noundef zeroext false) #8
  br label %15

15:                                               ; preds = %9, %13
  %16 = phi ptr [ %14, %13 ], [ @.str.4, %9 ]
  %17 = getelementptr inbounds nuw i8, ptr %10, i64 16
  %18 = load ptr, ptr %17, align 8
  %19 = tail call i32 (ptr, ...) @errmsg(ptr noundef nonnull @.str.3, ptr noundef %16, ptr noundef %18) #8
  tail call void @errfinish(ptr noundef nonnull @.str.1, i32 noundef 226, ptr noundef nonnull @__func__.GetUserMapping) #8
  unreachable

.thread:                                          ; preds = %2, %7
  %.026 = phi ptr [ %8, %7 ], [ %6, %2 ]
  %20 = tail call ptr @palloc(i64 noundef 24) #8
  %21 = getelementptr i8, ptr %.026, i64 16
  %.0.val = load ptr, ptr %21, align 8
  %22 = getelementptr inbounds nuw i8, ptr %.0.val, i64 22
  %23 = load i8, ptr %22, align 2
  %24 = zext i8 %23 to i64
  %25 = getelementptr inbounds nuw i8, ptr %.0.val, i64 %24
  %26 = load i32, ptr %25, align 4
  store i32 %26, ptr %20, align 8
  %27 = getelementptr inbounds nuw i8, ptr %20, i64 4
  store i32 %0, ptr %27, align 4
  %28 = getelementptr inbounds nuw i8, ptr %20, i64 8
  store i32 %1, ptr %28, align 8
  %29 = call i64 @SysCacheGetAttr(i32 noundef 84, ptr noundef nonnull %.026, i16 noundef signext 4, ptr noundef nonnull %3) #8
  %30 = load i8, ptr %3, align 1, !range !4, !noundef !5
  %31 = trunc nuw i8 %30 to i1
  br i1 %31, label %34, label %32

32:                                               ; preds = %.thread
  %33 = call ptr @untransformRelOptions(i64 noundef %29) #8
  br label %34

34:                                               ; preds = %.thread, %32
  %.sink = phi ptr [ %33, %32 ], [ null, %.thread ]
  %35 = getelementptr inbounds nuw i8, ptr %20, i64 16
  store ptr %.sink, ptr %35, align 8
  call void @ReleaseSysCache(ptr noundef nonnull %.026) #8
  call void @llvm.lifetime.end.p0(i64 1, ptr nonnull %3) #8
  ret ptr %20
}